target datalayout = "e-m:e-p270:32:32-p271:32:32-p272:64:64-i64:64-i128:128-f80:128-n8:16:32:64-S128"
target triple = "x86_64-pc-linux-gnu"

%struct.xdot_color = type { i32, %union.anon.0 }
%union.anon.0 = type { %struct.xdot_radial_grad }
%struct.xdot_radial_grad = type { double, double, double, double, double, double, i32, ptr }
%struct.xdot_linear_grad = type { double, double, double, double, i32, ptr }
%struct.xdot_color_stop = type { float, ptr }

; Function Attrs: nounwind uwtable
define void @freeXDotColor(ptr noundef %0) #0 {
  %2 = alloca ptr, align 8
  %3 = alloca i32, align 4
  store ptr %0, ptr %2, align 8, !tbaa !8
  call void @llvm.lifetime.start.p0(i64 4, ptr %3) #13
  %4 = load ptr, ptr %2, align 8, !tbaa !8
  %5 = getelementptr inbounds nuw %struct.xdot_color, ptr %4, i32 0, i32 0
  %6 = load i32, ptr %5, align 8, !tbaa !32
  %7 = icmp eq i32 %6, 1
  br i1 %7, label %8, label %34

8:                                                ; preds = %1
  store i32 0, ptr %3, align 4, !tbaa !18
  br label %9

9:                                                ; preds = %26, %8
  %10 = load i32, ptr %3, align 4, !tbaa !18
  %11 = load ptr, ptr %2, align 8, !tbaa !8
  %12 = getelementptr inbounds nuw %struct.xdot_color, ptr %11, i32 0, i32 1
  %13 = getelementptr inbounds nuw %struct.xdot_linear_grad, ptr %12, i32 0, i32 4
  %14 = load i32, ptr %13, align 8, !tbaa !19
  %15 = icmp slt i32 %10, %14
  br i1 %15, label %16, label %29

16:                                               ; preds = %9
  %17 = load ptr, ptr %2, align 8, !tbaa !8
  %18 = getelementptr inbounds nuw %struct.xdot_color, ptr %17, i32 0, i32 1
  %19 = getelementptr inbounds nuw %struct.xdot_linear_grad, ptr %18, i32 0, i32 5
  %20 = load ptr, ptr %19, align 8, !tbaa !19
  %21 = load i32, ptr %3, align 4, !tbaa !18
  %22 = sext i32 %21 to i64
  %23 = getelementptr inbounds %struct.xdot_color_stop, ptr %20, i64 %22
  %24 = getelementptr inbounds nuw %struct.xdot_color_stop, ptr %23, i32 0, i32 1
  %25 = load ptr, ptr %24, align 8, !tbaa !62
  call void @free(ptr noundef %25) #13
  br label %26

26:                                               ; preds = %16
  %27 = load i32, ptr %3, align 4, !tbaa !18
  %28 = add nsw i32 %27, 1
  store i32 %28, ptr %3, align 4, !tbaa !18
  br label %9, !llvm.loop !63

29:                                               ; preds = %9
  %30 = load ptr, ptr %2, align 8, !tbaa !8
  %31 = getelementptr inbounds nuw %struct.xdot_color, ptr %30, i32 0, i32 1
  %32 = getelementptr inbounds nuw %struct.xdot_linear_grad, ptr %31, i32 0, i32 5
  %33 = load ptr, ptr %32, align 8, !tbaa !19
  call void @free(ptr noundef %33) #13
  br label %66

34:                                               ; preds = %1
  %35 = load ptr, ptr %2, align 8, !tbaa !8
  %36 = getelementptr inbounds nuw %struct.xdot_color, ptr %35, i32 0, i32 0
  %37 = load i32, ptr %36, align 8, !tbaa !32
  %38 = icmp eq i32 %37, 2
  br i1 %38, label %39, label %65

39:                                               ; preds = %34
  store i32 0, ptr %3, align 4, !tbaa !18
  br label %40

40:                                               ; preds = %57, %39
  %41 = load i32, ptr %3, align 4, !tbaa !18
  %42 = load ptr, ptr %2, align 8, !tbaa !8
  %43 = getelementptr inbounds nuw %struct.xdot_color, ptr %42, i32 0, i32 1
  %44 = getelementptr inbounds nuw %struct.xdot_radial_grad, ptr %43, i32 0, i32 6
  %45 = load i32, ptr %44, align 8, !tbaa !19
  %46 = icmp slt i32 %41, %45
  br i1 %46, label %47, label %60

47:                                               ; preds = %40
  %48 = load ptr, ptr %2, align 8, !tbaa !8
  %49 = getelementptr inbounds nuw %struct.xdot_color, ptr %48, i32 0, i32 1
  %50 = getelementptr inbounds nuw %struct.xdot_radial_grad, ptr %49, i32 0, i32 7
  %51 = load ptr, ptr %50, align 8, !tbaa !19
  %52 = load i32, ptr %3, align 4, !tbaa !18
  %53 = sext i32 %52 to i64
  %54 = getelementptr inbounds %struct.xdot_color_stop, ptr %51, i64 %53
  %55 = getelementptr inbounds nuw %struct.xdot_color_stop, ptr %54, i32 0, i32 1
  %56 = load ptr, ptr %55, align 8, !tbaa !62
  call void @free(ptr noundef %56) #13
  br label %57

57:                                               ; preds = %47
  %58 = load i32, ptr %3, align 4, !tbaa !18
  %59 = add nsw i32 %58, 1
  store i32 %59, ptr %3, align 4, !tbaa !18
  br label %40, !llvm.loop !64

60:                                               ; preds = %40
  %61 = load ptr, ptr %2, align 8, !tbaa !8
  %62 = getelementptr inbounds nuw %struct.xdot_color, ptr %61, i32 0, i32 1
  %63 = getelementptr inbounds nuw %struct.xdot_radial_grad, ptr %62, i32 0, i32 7
  %64 = load ptr, ptr %63, align 8, !tbaa !19
  call void @free(ptr noundef %64) #13
  br label %65

65:                                               ; preds = %60, %34
  br label %66

66:                                               ; preds = %65, %29
  call void @llvm.lifetime.end.p0(i64 4, ptr %3) #13
  ret void
}