; Function Attrs: nounwind uwtable
define void @freeXDotColor(ptr noundef readonly captures(none) %0) local_unnamed_addr #0 {
  %2 = load i32, ptr %0, align 8, !tbaa !28
  switch i32 %2, label %27 [
    i32 1, label %.preheader
    i32 2, label %.preheader14
  ]

.preheader14:                                     ; preds = %1
  %3 = getelementptr inbounds nuw i8, ptr %0, i64 56
  %4 = load i32, ptr %3, align 8, !tbaa !15
  %5 = icmp sgt i32 %4, 0
  br i1 %5, label %.lr.ph, label %.sink.split

.lr.ph:                                           ; preds = %.preheader14
  %6 = getelementptr inbounds nuw i8, ptr %0, i64 64
  br label %18

.preheader:                                       ; preds = %1
  %7 = getelementptr inbounds nuw i8, ptr %0, i64 40
  %8 = load i32, ptr %7, align 8, !tbaa !15
  %9 = icmp sgt i32 %8, 0
  br i1 %9, label %.lr.ph17, label %.sink.split

.lr.ph17:                                         ; preds = %.preheader
  %10 = getelementptr inbounds nuw i8, ptr %0, i64 48
  br label %11

11:                                               ; preds = %.lr.ph17, %11
  %indvars.iv20 = phi i64 [ 0, %.lr.ph17 ], [ %indvars.iv.next21, %11 ]
  %12 = load ptr, ptr %10, align 8, !tbaa !15
  %13 = getelementptr inbounds nuw %struct.xdot_color_stop, ptr %12, i64 %indvars.iv20, i32 1
  %14 = load ptr, ptr %13, align 8, !tbaa !50
  tail call void @free(ptr noundef %14) #20
  %indvars.iv.next21 = add nuw nsw i64 %indvars.iv20, 1
  %15 = load i32, ptr %7, align 8, !tbaa !15
  %16 = sext i32 %15 to i64
  %17 = icmp slt i64 %indvars.iv.next21, %16
  br i1 %17, label %11, label %.sink.split, !llvm.loop !53

18:                                               ; preds = %.lr.ph, %18
  %indvars.iv = phi i64 [ 0, %.lr.ph ], [ %indvars.iv.next, %18 ]
  %19 = load ptr, ptr %6, align 8, !tbaa !15
  %20 = getelementptr inbounds nuw %struct.xdot_color_stop, ptr %19, i64 %indvars.iv, i32 1
  %21 = load ptr, ptr %20, align 8, !tbaa !50
  tail call void @free(ptr noundef %21) #20
  %indvars.iv.next = add nuw nsw i64 %indvars.iv, 1
  %22 = load i32, ptr %3, align 8, !tbaa !15
  %23 = sext i32 %22 to i64
  %24 = icmp slt i64 %indvars.iv.next, %23
  br i1 %24, label %18, label %.sink.split, !llvm.loop !54

.sink.split:                                      ; preds = %18, %11, %.preheader14, %.preheader
  %.sink = phi i64 [ 48, %.preheader ], [ 64, %.preheader14 ], [ 48, %11 ], [ 64, %18 ]
  %25 = getelementptr inbounds nuw i8, ptr %0, i64 %.sink
  %26 = load ptr, ptr %25, align 8, !tbaa !15
  tail call void @free(ptr noundef %26) #20
  br label %27

27:                                               ; preds = %.sink.split, %1
  ret void
}